; ModuleID = '23/802.c'
source_filename = "23/802.c"
target datalayout = "e-m:e-p270:32:32-p271:32:32-p272:64:64-i64:64-f80:128-n8:16:32:64-S128"
target triple = "x86_64-pc-linux-gnu"

@.str = private unnamed_addr constant [3 x i8] c"%c\00", align 1
@.str.1 = private unnamed_addr constant [2 x i8] c" \00", align 1

; Function Attrs: noinline nounwind uwtable
define dso_local void @main() #0 {
  %1 = alloca [100 x i8], align 16
  %2 = alloca i8, align 1
  %3 = alloca i32, align 4
  %4 = alloca i32, align 4
  %5 = alloca i32, align 4
  %6 = alloca i32, align 4
  %7 = alloca i32, align 4
  %8 = alloca i32, align 4
  %9 = alloca i32, align 4
  %10 = getelementptr inbounds [100 x i8], [100 x i8]* %1, i64 0, i64 0
  %11 = call i32 (i8*, ...) bitcast (i32 (...)* @gets to i32 (i8*, ...)*)(i8* %10)
  %12 = getelementptr inbounds [100 x i8], [100 x i8]* %1, i64 0, i64 0
  %13 = call i64 @strlen(i8* %12) #3
  %14 = trunc i64 %13 to i32
  store i32 %14, i32* %4, align 4
  %15 = load i32, i32* %4, align 4
  %16 = sub nsw i32 %15, 1
  store i32 %16, i32* %6, align 4
  %17 = load i32, i32* %4, align 4
  %18 = sub nsw i32 %17, 1
  store i32 %18, i32* %3, align 4
  br label %19

19:                                               ; preds = %76, %0
  %20 = load i32, i32* %3, align 4
  %21 = icmp sge i32 %20, 0
  br i1 %21, label %22, label %79

22:                                               ; preds = %19
  %23 = load i32, i32* %3, align 4
  %24 = sext i32 %23 to i64
  %25 = getelementptr inbounds [100 x i8], [100 x i8]* %1, i64 0, i64 %24
  %26 = load i8, i8* %25, align 1
  %27 = sext i8 %26 to i32
  %28 = icmp eq i32 %27, 32
  br i1 %28, label %29, label %56

29:                                               ; preds = %22
  %30 = load i32, i32* %3, align 4
  store i32 %30, i32* %5, align 4
  %31 = load i32, i32* %5, align 4
  %32 = add nsw i32 %31, 1
  store i32 %32, i32* %7, align 4
  br label %33

33:                                               ; preds = %50, %29
  %34 = load i32, i32* %7, align 4
  %35 = load i32, i32* %6, align 4
  %36 = icmp sle i32 %34, %35
  br i1 %36, label %37, label %53

37:                                               ; preds = %33
  %38 = load i32, i32* %7, align 4
  %39 = sext i32 %38 to i64
  %40 = getelementptr inbounds [100 x i8], [100 x i8]* %1, i64 0, i64 %39
  %41 = load i8, i8* %40, align 1
  %42 = sext i8 %41 to i32
  %43 = call i32 (i8*, ...) @printf(i8* getelementptr inbounds ([3 x i8], [3 x i8]* @.str, i64 0, i64 0), i32 %42)
  %44 = load i32, i32* %7, align 4
  %45 = load i32, i32* %6, align 4
  %46 = icmp eq i32 %44, %45
  br i1 %46, label %47, label %49

47:                                               ; preds = %37
  %48 = call i32 (i8*, ...) @printf(i8* getelementptr inbounds ([2 x i8], [2 x i8]* @.str.1, i64 0, i64 0))
  br label %49

49:                                               ; preds = %47, %37
  br label %50

50:                                               ; preds = %49
  %51 = load i32, i32* %7, align 4
  %52 = add nsw i32 %51, 1
  store i32 %52, i32* %7, align 4
  br label %33

53:                                               ; preds = %33
  %54 = load i32, i32* %5, align 4
  %55 = sub nsw i32 %54, 1
  store i32 %55, i32* %6, align 4
  br label %56

56:                                               ; preds = %53, %22
  %57 = load i32, i32* %3, align 4
  %58 = icmp eq i32 %57, 0
  br i1 %58, label %59, label %75

59:                                               ; preds = %56
  store i32 0, i32* %8, align 4
  br label %60

60:                                               ; preds = %71, %59
  %61 = load i32, i32* %8, align 4
  %62 = load i32, i32* %6, align 4
  %63 = icmp sle i32 %61, %62
  br i1 %63, label %64, label %74

64:                                               ; preds = %60
  %65 = load i32, i32* %8, align 4
  %66 = sext i32 %65 to i64
  %67 = getelementptr inbounds [100 x i8], [100 x i8]* %1, i64 0, i64 %66
  %68 = load i8, i8* %67, align 1
  %69 = sext i8 %68 to i32
  %70 = call i32 (i8*, ...) @printf(i8* getelementptr inbounds ([3 x i8], [3 x i8]* @.str, i64 0, i64 0), i32 %69)
  br label %71

71:                                               ; preds = %64
  %72 = load i32, i32* %8, align 4
  %73 = add nsw i32 %72, 1
  store i32 %73, i32* %8, align 4
  br label %60

74:                                               ; preds = %60
  br label %75

75:                                               ; preds = %74, %56
  br label %76

76:                                               ; preds = %75
  %77 = load i32, i32* %3, align 4
  %78 = add nsw i32 %77, -1
  store i32 %78, i32* %3, align 4
  br label %19

79:                                               ; preds = %19
  ret void
}

declare dso_local i32 @gets(...) #1

; Function Attrs: nounwind readonly
declare dso_local i64 @strlen(i8*) #2

declare dso_local i32 @printf(i8*, ...) #1


!llvm.module.flags = !{!0}
!llvm.ident = !{!1}

!0 = !{i32 1, !"wchar_size", i32 4}
!1 = !{!"clang version 10.0.0-4ubuntu1 "}
